; ModuleID = '58/225.c'
source_filename = "58/225.c"
target datalayout = "e-m:e-p270:32:32-p271:32:32-p272:64:64-i64:64-f80:128-n8:16:32:64-S128"
target triple = "x86_64-pc-linux-gnu"

@.str = private unnamed_addr constant [3 x i8] c"%d\00", align 1
@.str.1 = private unnamed_addr constant [4 x i8] c"%c\0A\00", align 1

; Function Attrs: noinline nounwind uwtable
define dso_local i32 @main() #0 {
  %1 = alloca i32, align 4
  %2 = alloca [100 x i8], align 16
  %3 = alloca i8*, align 8
  %4 = alloca i32, align 4
  %5 = alloca [100 x [1 x i32]], align 16
  %6 = alloca i32*, align 8
  %7 = alloca i32, align 4
  store i32 0, i32* %1, align 4
  %8 = call i32 (i8*, ...) @__isoc99_scanf(i8* getelementptr inbounds ([3 x i8], [3 x i8]* @.str, i64 0, i64 0), i32* %4)
  %9 = getelementptr inbounds [100 x i8], [100 x i8]* %2, i64 0, i64 0
  %10 = call i32 (i8*, ...) bitcast (i32 (...)* @gets to i32 (i8*, ...)*)(i8* %9)
  %11 = getelementptr inbounds [100 x [1 x i32]], [100 x [1 x i32]]* %5, i64 0, i64 0
  %12 = getelementptr inbounds [1 x i32], [1 x i32]* %11, i64 0, i64 0
  store i32* %12, i32** %6, align 8
  br label %13

13:                                               ; preds = %85, %0
  %14 = load i32*, i32** %6, align 8
  %15 = getelementptr inbounds [100 x [1 x i32]], [100 x [1 x i32]]* %5, i64 0, i64 0
  %16 = load i32, i32* %4, align 4
  %17 = sext i32 %16 to i64
  %18 = getelementptr inbounds [1 x i32], [1 x i32]* %15, i64 %17
  %19 = getelementptr inbounds [1 x i32], [1 x i32]* %18, i64 0, i64 0
  %20 = icmp ult i32* %14, %19
  br i1 %20, label %21, label %88

21:                                               ; preds = %13
  %22 = load i32*, i32** %6, align 8
  store i32 48, i32* %22, align 4
  %23 = getelementptr inbounds [100 x i8], [100 x i8]* %2, i64 0, i64 0
  %24 = call i32 (i8*, ...) bitcast (i32 (...)* @gets to i32 (i8*, ...)*)(i8* %23)
  %25 = getelementptr inbounds [100 x i8], [100 x i8]* %2, i64 0, i64 0
  %26 = call i64 @strlen(i8* %25) #3
  %27 = trunc i64 %26 to i32
  store i32 %27, i32* %7, align 4
  %28 = getelementptr inbounds [100 x i8], [100 x i8]* %2, i64 0, i64 0
  %29 = load i8, i8* %28, align 16
  %30 = sext i8 %29 to i32
  %31 = icmp sgt i32 %30, 122
  br i1 %31, label %37, label %32

32:                                               ; preds = %21
  %33 = getelementptr inbounds [100 x i8], [100 x i8]* %2, i64 0, i64 0
  %34 = load i8, i8* %33, align 16
  %35 = sext i8 %34 to i32
  %36 = icmp slt i32 %35, 65
  br i1 %36, label %37, label %43

37:                                               ; preds = %32, %21
  %38 = getelementptr inbounds [100 x i8], [100 x i8]* %2, i64 0, i64 0
  %39 = load i8, i8* %38, align 16
  %40 = sext i8 %39 to i32
  %41 = icmp ne i32 %40, 95
  br i1 %41, label %42, label %43

42:                                               ; preds = %37
  br label %85

43:                                               ; preds = %37, %32
  %44 = load i32*, i32** %6, align 8
  store i32 49, i32* %44, align 4
  %45 = getelementptr inbounds [100 x i8], [100 x i8]* %2, i64 0, i64 0
  store i8* %45, i8** %3, align 8
  br label %46

46:                                               ; preds = %81, %43
  %47 = load i8*, i8** %3, align 8
  %48 = getelementptr inbounds [100 x i8], [100 x i8]* %2, i64 0, i64 0
  %49 = load i32, i32* %7, align 4
  %50 = sext i32 %49 to i64
  %51 = getelementptr inbounds i8, i8* %48, i64 %50
  %52 = icmp ult i8* %47, %51
  br i1 %52, label %53, label %84

53:                                               ; preds = %46
  %54 = load i8*, i8** %3, align 8
  %55 = load i8, i8* %54, align 1
  %56 = sext i8 %55 to i32
  %57 = icmp slt i32 %56, 65
  br i1 %57, label %58, label %63

58:                                               ; preds = %53
  %59 = load i8*, i8** %3, align 8
  %60 = load i8, i8* %59, align 1
  %61 = sext i8 %60 to i32
  %62 = icmp sgt i32 %61, 57
  br i1 %62, label %73, label %63

63:                                               ; preds = %58, %53
  %64 = load i8*, i8** %3, align 8
  %65 = load i8, i8* %64, align 1
  %66 = sext i8 %65 to i32
  %67 = icmp sgt i32 %66, 122
  br i1 %67, label %73, label %68

68:                                               ; preds = %63
  %69 = load i8*, i8** %3, align 8
  %70 = load i8, i8* %69, align 1
  %71 = sext i8 %70 to i32
  %72 = icmp slt i32 %71, 48
  br i1 %72, label %73, label %80

73:                                               ; preds = %68, %63, %58
  %74 = load i8*, i8** %3, align 8
  %75 = load i8, i8* %74, align 1
  %76 = sext i8 %75 to i32
  %77 = icmp ne i32 %76, 95
  br i1 %77, label %78, label %80

78:                                               ; preds = %73
  %79 = load i32*, i32** %6, align 8
  store i32 48, i32* %79, align 4
  br label %84

80:                                               ; preds = %73, %68
  br label %81

81:                                               ; preds = %80
  %82 = load i8*, i8** %3, align 8
  %83 = getelementptr inbounds i8, i8* %82, i32 1
  store i8* %83, i8** %3, align 8
  br label %46

84:                                               ; preds = %78, %46
  br label %85

85:                                               ; preds = %84, %42
  %86 = load i32*, i32** %6, align 8
  %87 = getelementptr inbounds i32, i32* %86, i32 1
  store i32* %87, i32** %6, align 8
  br label %13

88:                                               ; preds = %13
  %89 = getelementptr inbounds [100 x [1 x i32]], [100 x [1 x i32]]* %5, i64 0, i64 0
  %90 = getelementptr inbounds [1 x i32], [1 x i32]* %89, i64 0, i64 0
  store i32* %90, i32** %6, align 8
  br label %91

91:                                               ; preds = %103, %88
  %92 = load i32*, i32** %6, align 8
  %93 = getelementptr inbounds [100 x [1 x i32]], [100 x [1 x i32]]* %5, i64 0, i64 0
  %94 = load i32, i32* %4, align 4
  %95 = sext i32 %94 to i64
  %96 = getelementptr inbounds [1 x i32], [1 x i32]* %93, i64 %95
  %97 = getelementptr inbounds [1 x i32], [1 x i32]* %96, i64 0, i64 0
  %98 = icmp ult i32* %92, %97
  br i1 %98, label %99, label %106

99:                                               ; preds = %91
  %100 = load i32*, i32** %6, align 8
  %101 = load i32, i32* %100, align 4
  %102 = call i32 (i8*, ...) @printf(i8* getelementptr inbounds ([4 x i8], [4 x i8]* @.str.1, i64 0, i64 0), i32 %101)
  br label %103

103:                                              ; preds = %99
  %104 = load i32*, i32** %6, align 8
  %105 = getelementptr inbounds i32, i32* %104, i32 1
  store i32* %105, i32** %6, align 8
  br label %91

106:                                              ; preds = %91
  ret i32 0
}

declare dso_local i32 @__isoc99_scanf(i8*, ...) #1

declare dso_local i32 @gets(...) #1

; Function Attrs: nounwind readonly
declare dso_local i64 @strlen(i8*) #2

declare dso_local i32 @printf(i8*, ...) #1


!llvm.module.flags = !{!0}
!llvm.ident = !{!1}

!0 = !{i32 1, !"wchar_size", i32 4}
!1 = !{!"clang version 10.0.0-4ubuntu1 "}
